; Function Attrs: mustprogress nofree norecurse nosync nounwind willreturn memory(read, inaccessiblemem: write) uwtable
define hidden noundef zeroext i1 @_ZNK5Block24is_trivially_unreachableEv(ptr nocapture noundef nonnull readonly align 8 dereferenceable(144) %0) local_unnamed_addr #5 align 2 {
  %2 = getelementptr inbounds i8, ptr %0, i64 24
  %3 = load i32, ptr %2, align 8
  %.not.i.i = icmp ne i32 %3, 0
  tail call void @llvm.assume(i1 %.not.i.i)
  %4 = getelementptr inbounds i8, ptr %0, i64 32
  %5 = load ptr, ptr %4, align 8
  %6 = load ptr, ptr %5, align 8
  %7 = getelementptr inbounds i8, ptr %6, i64 24
  %8 = load i32, ptr %7, align 8
  %9 = icmp ult i32 %8, 2
  br i1 %9, label %_ZNK5Block4headEv.exit, label %16

_ZNK5Block4headEv.exit:                           ; preds = %1
  %10 = getelementptr inbounds i8, ptr %6, i64 44
  %11 = load i32, ptr %10, align 4
  %12 = and i32 %11, 255
  %13 = icmp eq i32 %12, 224
  br i1 %13, label %16, label %_ZNK5Block4headEv.exit2

_ZNK5Block4headEv.exit2:                          ; preds = %_ZNK5Block4headEv.exit
  %14 = and i32 %11, 15
  %15 = icmp ne i32 %14, 9
  br label %16

16:                                               ; preds = %_ZNK5Block4headEv.exit2, %_ZNK5Block4headEv.exit, %1
  %17 = phi i1 [ false, %_ZNK5Block4headEv.exit ], [ false, %1 ], [ %15, %_ZNK5Block4headEv.exit2 ]
  ret i1 %17
}